; Function Attrs: nounwind uwtable
define dso_local void @build_aggregate_serialfn_expr(i32 noundef %0, ptr noundef writeonly captures(none) initializes((0, 8)) %1) local_unnamed_addr #0 {
  %3 = tail call noundef ptr @palloc0(i64 noundef 28) #11
  store i32 8, ptr %3, align 4
  %4 = getelementptr inbounds nuw i8, ptr %3, i64 4
  store i32 1, ptr %4, align 4
  %5 = getelementptr inbounds nuw i8, ptr %3, i64 8
  store i32 -1, ptr %5, align 4
  %6 = getelementptr inbounds nuw i8, ptr %3, i64 12
  store i32 2281, ptr %6, align 4
  %7 = getelementptr inbounds nuw i8, ptr %3, i64 16
  store i32 -1, ptr %7, align 4
  %8 = getelementptr inbounds nuw i8, ptr %3, i64 20
  store i32 0, ptr %8, align 4
  %9 = getelementptr inbounds nuw i8, ptr %3, i64 24
  store i32 -1, ptr %9, align 4
  %10 = tail call ptr @list_make1_impl(i32 noundef 1, ptr nonnull %3) #11
  %11 = tail call ptr @makeFuncExpr(i32 noundef %0, i32 noundef 17, ptr noundef %10, i32 noundef 0, i32 noundef 0, i32 noundef 0) #11
  store ptr %11, ptr %1, align 8
  ret void
}